; Function Attrs: mustprogress uwtable
define void @_ZN6google8protobuf9FieldMask9MergeImplERNS0_11MessageLiteERKS2_(ptr noundef nonnull align 8 dereferenceable(16) %to_msg, ptr noundef nonnull align 8 dereferenceable(16) %from_msg) #3 align 2 {
entry:
  %current_size_.i.i.i = getelementptr inbounds i8, ptr %from_msg, i64 24
  %0 = load i32, ptr %current_size_.i.i.i, align 8
  %cmp.i.i.i = icmp eq i32 %0, 0
  br i1 %cmp.i.i.i, label %_ZN6google8protobuf16RepeatedPtrFieldINSt7__cxx1112basic_stringIcSt11char_traitsIcESaIcEEEE9MergeFromERKS8_.exit, label %if.end.i

if.end.i:                                         ; preds = %entry
  %1 = getelementptr inbounds i8, ptr %from_msg, i64 16
  %2 = getelementptr inbounds i8, ptr %to_msg, i64 16
  tail call void @_ZN6google8protobuf8internal20RepeatedPtrFieldBase9MergeFromINSt7__cxx1112basic_stringIcSt11char_traitsIcESaIcEEEEEvRKS2_(ptr noundef nonnull align 8 dereferenceable(24) %2, ptr noundef nonnull align 8 dereferenceable(24) %1)
  br label %_ZN6google8protobuf16RepeatedPtrFieldINSt7__cxx1112basic_stringIcSt11char_traitsIcESaIcEEEE9MergeFromERKS8_.exit

_ZN6google8protobuf16RepeatedPtrFieldINSt7__cxx1112basic_stringIcSt11char_traitsIcESaIcEEEE9MergeFromERKS8_.exit: ; preds = %entry, %if.end.i
  %_internal_metadata_3 = getelementptr inbounds i8, ptr %from_msg, i64 8
  %3 = load i64, ptr %_internal_metadata_3, align 8
  %and.i15 = and i64 %3, 1
  %tobool.i16.not = icmp eq i64 %and.i15, 0
  br i1 %tobool.i16.not, label %_ZN6google8protobuf8internal16InternalMetadata9MergeFromINS0_15UnknownFieldSetEEEvRKS2_.exit, label %if.then.i9

if.then.i9:                                       ; preds = %_ZN6google8protobuf16RepeatedPtrFieldINSt7__cxx1112basic_stringIcSt11char_traitsIcESaIcEEEE9MergeFromERKS8_.exit
  %_internal_metadata_ = getelementptr inbounds i8, ptr %to_msg, i64 8
  %and.i = and i64 %3, -2
  %4 = inttoptr i64 %and.i to ptr
  %unknown_fields.i = getelementptr inbounds i8, ptr %4, i64 8
  tail call void @_ZN6google8protobuf8internal16InternalMetadata11DoMergeFromINS0_15UnknownFieldSetEEEvRKT_(ptr noundef nonnull align 8 dereferenceable(8) %_internal_metadata_, ptr noundef nonnull align 8 dereferenceable(24) %unknown_fields.i)
  br label %_ZN6google8protobuf8internal16InternalMetadata9MergeFromINS0_15UnknownFieldSetEEEvRKS2_.exit

_ZN6google8protobuf8internal16InternalMetadata9MergeFromINS0_15UnknownFieldSetEEEvRKS2_.exit: ; preds = %if.then.i9, %_ZN6google8protobuf16RepeatedPtrFieldINSt7__cxx1112basic_stringIcSt11char_traitsIcESaIcEEEE9MergeFromERKS8_.exit
  ret void
}